; Function Attrs: nounwind uwtable
define hidden void @png_set_gAMA(ptr noalias noundef %0, ptr noalias noundef %1, double noundef %2) local_unnamed_addr #2 {
  %4 = tail call i32 @png_fixed(ptr noundef %0, double noundef %2, ptr noundef nonnull @.str.11) #12
  %5 = icmp eq ptr %0, null
  %6 = icmp eq ptr %1, null
  %or.cond.i = or i1 %5, %6
  br i1 %or.cond.i, label %png_set_gAMA_fixed.exit, label %7

7:                                                ; preds = %3
  %8 = getelementptr inbounds i8, ptr %1, i64 52
  tail call void @png_colorspace_set_gamma(ptr noundef nonnull %0, ptr noundef nonnull %8, i32 noundef %4) #12
  tail call void @png_colorspace_sync_info(ptr noundef nonnull %0, ptr noundef nonnull %1) #12
  br label %png_set_gAMA_fixed.exit

png_set_gAMA_fixed.exit:                          ; preds = %3, %7
  ret void
}